; Function Attrs: mustprogress uwtable
define void @_ZN2cv8saliency25StaticSaliencyFineGrained9copyImageENS_3MatES2_(ptr noundef nonnull readnone align 8 captures(none) dereferenceable(8) %0, ptr noundef nonnull %1, ptr noundef %2) local_unnamed_addr #3 align 2 personality ptr @__gxx_personality_v0 {
  %4 = alloca %"class.cv::_OutputArray", align 8
  call void @llvm.lifetime.start.p0(i64 24, ptr nonnull %4) #16
  %5 = getelementptr inbounds nuw i8, ptr %4, i64 8
  %6 = getelementptr inbounds nuw i8, ptr %4, i64 16
  store i64 0, ptr %6, align 8
  store i32 33619968, ptr %4, align 8, !tbaa !52
  store ptr %2, ptr %5, align 8, !tbaa !18
  call void @_ZNK2cv3Mat6copyToERKNS_12_OutputArrayE(ptr noundef nonnull align 8 dereferenceable(96) %1, ptr noundef nonnull align 8 dereferenceable(24) %4)
  call void @llvm.lifetime.end.p0(i64 24, ptr nonnull %4) #16
  ret void
}